Certificate Request:
    Data:
        Version: 1 (0x0)
        Subject: C = FR, L = Limoges, O = CRYPTIS, OU = SecuTIC, CN = localhost
        Subject Public Key Info:
            Public Key Algorithm: id-ecPublicKey
                Public-Key: (256 bit)
                pub:
                    04:3b:46:c4:ef:ad:09:93:58:15:e5:60:58:1d:37:
                    cc:33:ad:8b:5a:f4:52:2f:c5:a6:62:2f:ab:32:22:
                    9b:ed:8f:49:3c:e7:16:41:01:fa:93:92:9d:ca:b0:
                    6c:1d:15:0a:cd:dc:b4:9d:76:46:12:07:60:60:ff:
                    62:96:89:47:06
                ASN1 OID: prime256v1
                NIST CURVE: P-256
        Attributes:
        Requested Extensions:
            X509v3 Basic Constraints: 
                CA:FALSE
    Signature Algorithm: ecdsa-with-SHA256
         30:45:02:20:1d:dd:9e:8d:c8:98:cc:9a:04:e9:c1:56:a6:e3:
         82:5c:25:5e:14:17:0a:cb:32:69:3c:bd:40:a5:d7:8d:97:85:
         02:21:00:ff:56:77:c5:4d:26:13:21:99:58:19:17:09:b7:da:
         d8:be:4c:cd:30:c7:c6:1d:38:5b:bf:e3:fb:61:ed:45:d0
-----BEGIN CERTIFICATE REQUEST-----
MIIBLjCB1QIBADBXMQswCQYDVQQGEwJGUjEQMA4GA1UEBwwHTGltb2dlczEQMA4G
A1UECgwHQ1JZUFRJUzEQMA4GA1UECwwHU2VjdVRJQzESMBAGA1UEAwwJbG9jYWxo
b3N0MFkwEwYHKoZIzj0CAQYIKoZIzj0DAQcDQgAEO0bE760Jk1gV5WBYHTfMM62L
WvRSL8WmYi+rMiKb7Y9JPOcWQQH6k5KdyrBsHRUKzdy0nXZGEgdgYP9ilolHBqAc
MBoGCSqGSIb3DQEJDjENMAswCQYDVR0TBAIwADAKBggqhkjOPQQDAgNIADBFAiAd
3Z6NyJjMmgTpwVam44JcJV4UFwrLMmk8vUCl142XhQIhAP9Wd8VNJhMhmVgZFwm3
2ti+TM0wx8YdOFu/4/th7UXQ
-----END CERTIFICATE REQUEST-----
