Certificate:
    Data:
        Version: 3 (0x2)
        Serial Number:
            03:a9:47:da:eb:b3:90:de:0b:33:13:68:43:69:ef:65:45:7d:b2:70
        Signature Algorithm: ecdsa-with-SHA256
        Issuer: C = FR, L = Limoges, O = CRYPTIS, OU = SecuTIC, CN = localhost
        Validity
            Not Before: Apr 28 12:03:12 2021 GMT
            Not After : Apr 26 12:03:12 2031 GMT
        Subject: C = FR, L = Limoges, O = CRYPTIS, OU = SecuTIC, CN = localhost
        Subject Public Key Info:
            Public Key Algorithm: id-ecPublicKey
                Public-Key: (256 bit)
                pub:
                    04:3b:46:c4:ef:ad:09:93:58:15:e5:60:58:1d:37:
                    cc:33:ad:8b:5a:f4:52:2f:c5:a6:62:2f:ab:32:22:
                    9b:ed:8f:49:3c:e7:16:41:01:fa:93:92:9d:ca:b0:
                    6c:1d:15:0a:cd:dc:b4:9d:76:46:12:07:60:60:ff:
                    62:96:89:47:06
                ASN1 OID: prime256v1
                NIST CURVE: P-256
        X509v3 extensions:
            X509v3 Basic Constraints: critical
                CA:FALSE
    Signature Algorithm: ecdsa-with-SHA256
         30:44:02:20:6a:41:43:dd:ed:0c:e5:be:cf:d2:d3:e0:3b:14:
         ed:f6:4a:33:d3:f0:77:6f:90:86:65:a2:e9:17:2d:01:8e:8a:
         02:20:76:64:b5:9c:46:92:f9:2a:d9:6f:f9:a3:50:ae:5d:37:
         56:2c:e5:41:85:98:f6:fa:c3:03:00:0c:08:97:f7:8d
-----BEGIN CERTIFICATE-----
MIIBvzCCAWagAwIBAgIUA6lH2uuzkN4LMxNoQ2nvZUV9snAwCgYIKoZIzj0EAwIw
VzELMAkGA1UEBhMCRlIxEDAOBgNVBAcMB0xpbW9nZXMxEDAOBgNVBAoMB0NSWVBU
SVMxEDAOBgNVBAsMB1NlY3VUSUMxEjAQBgNVBAMMCWxvY2FsaG9zdDAeFw0yMTA0
MjgxMjAzMTJaFw0zMTA0MjYxMjAzMTJaMFcxCzAJBgNVBAYTAkZSMRAwDgYDVQQH
DAdMaW1vZ2VzMRAwDgYDVQQKDAdDUllQVElTMRAwDgYDVQQLDAdTZWN1VElDMRIw
EAYDVQQDDAlsb2NhbGhvc3QwWTATBgcqhkjOPQIBBggqhkjOPQMBBwNCAAQ7RsTv
rQmTWBXlYFgdN8wzrYta9FIvxaZiL6syIpvtj0k85xZBAfqTkp3KsGwdFQrN3LSd
dkYSB2Bg/2KWiUcGoxAwDjAMBgNVHRMBAf8EAjAAMAoGCCqGSM49BAMCA0cAMEQC
IGpBQ93tDOW+z9LT4DsU7fZKM9Pwd2+QhmWi6RctAY6KAiB2ZLWcRpL5Ktlv+aNQ
rl03VizlQYWY9vrDAwAMCJf3jQ==
-----END CERTIFICATE-----
