Certificate:
    Data:
        Version: 3 (0x2)
        Serial Number:
            39:eb:8e:b2:5d:4b:01:0b:48:c1:10:00:a9:cf:c0:0b:69:3a:19:7a
        Signature Algorithm: ecdsa-with-SHA256
        Issuer: C = FR, L = Limoges, O = CRYPTIS, OU = SecuTIC, CN = localhost
        Validity
            Not Before: Apr 28 11:58:57 2021 GMT
            Not After : May 28 11:58:57 2021 GMT
        Subject: C = FR, L = Limoges, O = CRYPTIS, OU = SecuTIC, CN = localhost
        Subject Public Key Info:
            Public Key Algorithm: id-ecPublicKey
                Public-Key: (256 bit)
                pub:
                    04:bc:19:ee:28:a0:38:2d:4a:10:f6:78:f5:1e:d4:
                    4d:14:fb:b3:87:30:f3:c6:28:e3:14:73:e8:95:1f:
                    9e:ed:d2:d6:5e:7b:2c:5d:d3:db:da:53:d6:60:68:
                    dc:f7:b4:69:c3:92:bf:47:33:e2:9f:d0:8e:49:a5:
                    34:42:df:12:8a
                ASN1 OID: prime256v1
                NIST CURVE: P-256
        X509v3 extensions:
            X509v3 Basic Constraints: 
                CA:TRUE
    Signature Algorithm: ecdsa-with-SHA256
         30:46:02:21:00:c7:46:96:e3:7e:d8:93:32:cd:8e:a6:df:ed:
         e7:94:60:ae:22:36:a4:9b:84:ae:01:b1:e0:8b:74:9a:72:21:
         30:02:21:00:8a:e5:da:12:a2:ac:b5:e3:b9:ca:c1:74:77:1b:
         c4:ab:e7:06:2f:c6:6a:e0:3c:2c:08:5e:12:bf:61:0c:cb:df
-----BEGIN CERTIFICATE-----
MIIBwTCCAWagAwIBAgIUOeuOsl1LAQtIwRAAqc/AC2k6GXowCgYIKoZIzj0EAwIw
VzELMAkGA1UEBhMCRlIxEDAOBgNVBAcMB0xpbW9nZXMxEDAOBgNVBAoMB0NSWVBU
SVMxEDAOBgNVBAsMB1NlY3VUSUMxEjAQBgNVBAMMCWxvY2FsaG9zdDAeFw0yMTA0
MjgxMTU4NTdaFw0yMTA1MjgxMTU4NTdaMFcxCzAJBgNVBAYTAkZSMRAwDgYDVQQH
DAdMaW1vZ2VzMRAwDgYDVQQKDAdDUllQVElTMRAwDgYDVQQLDAdTZWN1VElDMRIw
EAYDVQQDDAlsb2NhbGhvc3QwWTATBgcqhkjOPQIBBggqhkjOPQMBBwNCAAS8Ge4o
oDgtShD2ePUe1E0U+7OHMPPGKOMUc+iVH57t0tZeeyxd09vaU9ZgaNz3tGnDkr9H
M+Kf0I5JpTRC3xKKoxAwDjAMBgNVHRMEBTADAQH/MAoGCCqGSM49BAMCA0kAMEYC
IQDHRpbjftiTMs2Opt/t55RgriI2pJuErgGx4It0mnIhMAIhAIrl2hKirLXjucrB
dHcbxKvnBi/GauA8LAheEr9hDMvf
-----END CERTIFICATE-----
